; Function Attrs: mustprogress nofree norecurse nosync nounwind willreturn memory(read, inaccessiblemem: none) uwtable
define dso_local noundef zeroext i1 @_Z16btIsBodyInIslandRKN27btSimulationIslandManagerMt6IslandEPK17btCollisionObject(ptr noundef nonnull readonly align 8 captures(none) dereferenceable(101) %0, ptr noundef readnone captures(address) %1) local_unnamed_addr #9 {
  %3 = getelementptr inbounds nuw i8, ptr %0, i64 4
  %4 = load i32, ptr %3, align 4, !tbaa !53
  %.not9 = icmp sgt i32 %4, 0
  br i1 %.not9, label %.lr.ph, label %._crit_edge

.lr.ph:                                           ; preds = %2
  %5 = getelementptr inbounds nuw i8, ptr %0, i64 16
  %6 = load ptr, ptr %5, align 8, !tbaa !52
  %wide.trip.count = zext nneg i32 %4 to i64
  br label %7

7:                                                ; preds = %7, %.lr.ph
  %indvars.iv = phi i64 [ 0, %.lr.ph ], [ %indvars.iv.next, %7 ]
  %8 = getelementptr inbounds nuw ptr, ptr %6, i64 %indvars.iv
  %9 = load ptr, ptr %8, align 8, !tbaa !69
  %10 = icmp eq ptr %9, %1
  %indvars.iv.next = add nuw nsw i64 %indvars.iv, 1
  %exitcond.not = icmp eq i64 %indvars.iv.next, %wide.trip.count
  %or.cond = select i1 %10, i1 true, i1 %exitcond.not
  br i1 %or.cond, label %._crit_edge, label %7, !llvm.loop !81

._crit_edge:                                      ; preds = %7, %2
  %.not.lcssa = phi i1 [ false, %2 ], [ %10, %7 ]
  ret i1 %.not.lcssa
}